---
triple:          'x86_64-apple-darwin'
binary-path:     '/Users/evan/Open_Source/fps_demo/tinyraycaster'
relocations:
  - { offsetInCU: 0x419F, offset: 0x419F, size: 0x8, addend: 0x0, symName: __ZNSt3__124__put_character_sequenceB7v160006IcNS_11char_traitsIcEEEERNS_13basic_ostreamIT_T0_EES7_PKS4_m, symObjAddr: 0x19A0, symBinAddr: 0x1000059B0, symSize: 0x1F0 }
  - { offsetInCU: 0x669D, offset: 0x669D, size: 0x8, addend: 0x0, symName: __ZNSt3__1lsB7v160006INS_11char_traitsIcEEEERNS_13basic_ostreamIcT_EES6_PKc, symObjAddr: 0x4D0, symBinAddr: 0x1000044E0, symSize: 0x40 }
  - { offsetInCU: 0x66E3, offset: 0x66E3, size: 0x8, addend: 0x0, symName: __ZNSt3__1lsB7v160006INS_11char_traitsIcEEEERNS_13basic_ostreamIcT_EES6_c, symObjAddr: 0x530, symBinAddr: 0x100004540, symSize: 0x30 }
  - { offsetInCU: 0x7036, offset: 0x7036, size: 0x8, addend: 0x0, symName: __ZNSt3__1lsB7v160006IcNS_11char_traitsIcEEEERNS_13basic_ostreamIT_T0_EES7_RKNS_8__iom_t6E, symObjAddr: 0x12E0, symBinAddr: 0x1000052F0, symSize: 0x40 }
  - { offsetInCU: 0x7085, offset: 0x7085, size: 0x8, addend: 0x0, symName: __ZNSt3__1lsB7v160006INS_11char_traitsIcEEEERNS_13basic_ostreamIcT_EES6_RKNS_8__iom_t4IcEE, symObjAddr: 0x1320, symBinAddr: 0x100005330, symSize: 0x40 }
  - { offsetInCU: 0x70C8, offset: 0x70C8, size: 0x8, addend: 0x0, symName: __ZNSt3__17setfillB7v160006IcEENS_8__iom_t4IT_EES2_, symObjAddr: 0x1360, symBinAddr: 0x100005370, symSize: 0x30 }
  - { offsetInCU: 0x70FD, offset: 0x70FD, size: 0x8, addend: 0x0, symName: __ZNSt3__14setwB7v160006Ei, symObjAddr: 0x1390, symBinAddr: 0x1000053A0, symSize: 0x20 }
  - { offsetInCU: 0x7136, offset: 0x7136, size: 0x8, addend: 0x0, symName: __ZNSt3__112__to_addressB7v160006IKcEEPT_S3_, symObjAddr: 0x1850, symBinAddr: 0x100005860, symSize: 0x10 }
  - { offsetInCU: 0x719E, offset: 0x719E, size: 0x8, addend: 0x0, symName: __ZNSt3__116__pad_and_outputB7v160006IcNS_11char_traitsIcEEEENS_19ostreambuf_iteratorIT_T0_EES6_PKS4_S8_S8_RNS_8ios_baseES4_, symObjAddr: 0x1BE0, symBinAddr: 0x100005BF0, symSize: 0x220 }
  - { offsetInCU: 0x726E, offset: 0x726E, size: 0x8, addend: 0x0, symName: __ZNSt3__119__debug_db_insert_cB7v160006INS_12basic_stringIcNS_11char_traitsIcEENS_9allocatorIcEEEEEEvPT_, symObjAddr: 0x2020, symBinAddr: 0x100006030, symSize: 0x10 }
  - { offsetInCU: 0x729F, offset: 0x729F, size: 0x8, addend: 0x0, symName: __ZNSt3__19use_facetB7v160006INS_5ctypeIcEEEERKT_RKNS_6localeE, symObjAddr: 0x21F0, symBinAddr: 0x100006200, symSize: 0x30 }
  - { offsetInCU: 0x776E, offset: 0x776E, size: 0x8, addend: 0x0, symName: __ZNSt3__118__constexpr_strlenB7v160006EPKc, symObjAddr: 0x2250, symBinAddr: 0x100006260, symSize: 0x20 }
  - { offsetInCU: 0x779A, offset: 0x779A, size: 0x8, addend: 0x0, symName: __ZNSt3__122__make_exception_guardB7v160006INS_6vectorIjNS_9allocatorIjEEE16__destroy_vectorEEENS_28__exception_guard_exceptionsIT_EES7_, symObjAddr: 0x2380, symBinAddr: 0x100006390, symSize: 0x40 }
  - { offsetInCU: 0x77CF, offset: 0x77CF, size: 0x8, addend: 0x0, symName: __ZNSt3__119__debug_db_insert_cB7v160006INS_6vectorIjNS_9allocatorIjEEEEEEvPT_, symObjAddr: 0x23F0, symBinAddr: 0x100006400, symSize: 0x10 }
  - { offsetInCU: 0x7800, offset: 0x7800, size: 0x8, addend: 0x0, symName: __ZNSt3__119__allocate_at_leastB7v160006INS_9allocatorIjEEEENS_19__allocation_resultINS_16allocator_traitsIT_E7pointerEEERS5_m, symObjAddr: 0x2740, symBinAddr: 0x100006750, symSize: 0x40 }
  - { offsetInCU: 0x7843, offset: 0x7843, size: 0x8, addend: 0x0, symName: __ZNSt3__13minB7v160006ImEERKT_S3_S3_, symObjAddr: 0x2870, symBinAddr: 0x100006880, symSize: 0x30 }
  - { offsetInCU: 0x7A87, offset: 0x7A87, size: 0x8, addend: 0x0, symName: __ZNSt3__13minB7v160006ImNS_6__lessImmEEEERKT_S5_S5_T0_, symObjAddr: 0x28F0, symBinAddr: 0x100006900, symSize: 0x50 }
  - { offsetInCU: 0x7B1C, offset: 0x7B1C, size: 0x8, addend: 0x0, symName: __ZNSt3__120__throw_length_errorB7v160006EPKc, symObjAddr: 0x29D0, symBinAddr: 0x1000069E0, symSize: 0x70 }
  - { offsetInCU: 0x7B44, offset: 0x7B44, size: 0x8, addend: 0x0, symName: __ZNSt3__117__libcpp_allocateB7v160006Emm, symObjAddr: 0x2B40, symBinAddr: 0x100006B50, symSize: 0x20 }
  - { offsetInCU: 0x7B81, offset: 0x7B81, size: 0x8, addend: 0x0, symName: __ZNSt3__121__libcpp_operator_newB7v160006IJmEEEPvDpT_, symObjAddr: 0x2B60, symBinAddr: 0x100006B70, symSize: 0x20 }
  - { offsetInCU: 0x7BBA, offset: 0x7BBA, size: 0x8, addend: 0x0, symName: __ZNSt3__112__to_addressB7v160006IjEEPT_S2_, symObjAddr: 0x2C50, symBinAddr: 0x100006C60, symSize: 0x10 }
  - { offsetInCU: 0x7BEF, offset: 0x7BEF, size: 0x8, addend: 0x0, symName: __ZNSt3__118__debug_db_erase_cB7v160006INS_6vectorIjNS_9allocatorIjEEEEEEvPT_, symObjAddr: 0x2F30, symBinAddr: 0x100006F40, symSize: 0x10 }
  - { offsetInCU: 0x7C20, offset: 0x7C20, size: 0x8, addend: 0x0, symName: __ZNSt3__119__libcpp_deallocateB7v160006EPvmm, symObjAddr: 0x3090, symBinAddr: 0x1000070A0, symSize: 0x30 }
  - { offsetInCU: 0x7C68, offset: 0x7C68, size: 0x8, addend: 0x0, symName: __ZNSt3__127__do_deallocate_handle_sizeB7v160006IJEEEvPvmDpT_, symObjAddr: 0x30C0, symBinAddr: 0x1000070D0, symSize: 0x20 }
  - { offsetInCU: 0x7CA6, offset: 0x7CA6, size: 0x8, addend: 0x0, symName: __ZNSt3__124__libcpp_operator_deleteB7v160006IJPvEEEvDpT_, symObjAddr: 0x30E0, symBinAddr: 0x1000070F0, symSize: 0x20 }
  - { offsetInCU: 0x7CDB, offset: 0x7CDB, size: 0x8, addend: 0x0, symName: __ZNSt3__115__debug_db_swapB7v160006INS_6vectorIjNS_9allocatorIjEEEEEEvPT_S6_, symObjAddr: 0x37F0, symBinAddr: 0x100007800, symSize: 0x10 }
  - { offsetInCU: 0x7D1A, offset: 0x7D1A, size: 0x8, addend: 0x0, symName: __ZNSt3__125__debug_db_invalidate_allB7v160006INS_6vectorIjNS_9allocatorIjEEEEEEvPT_, symObjAddr: 0x38F0, symBinAddr: 0x100007900, symSize: 0x10 }
  - { offsetInCU: 0x802B, offset: 0x802B, size: 0x8, addend: 0x0, symName: __ZSt28__throw_bad_array_new_lengthB7v160006v, symObjAddr: 0x2B00, symBinAddr: 0x100006B10, symSize: 0x40 }
  - { offsetInCU: 0xA696, offset: 0xA696, size: 0x8, addend: 0x0, symName: __Z10pack_colorhhhh, symObjAddr: 0x0, symBinAddr: 0x100004010, symSize: 0x40 }
  - { offsetInCU: 0xA6EC, offset: 0xA6EC, size: 0x8, addend: 0x0, symName: __Z12unpack_colorRKjRhS1_S1_S1_, symObjAddr: 0x40, symBinAddr: 0x100004050, symSize: 0x80 }
  - { offsetInCU: 0xA74C, offset: 0xA74C, size: 0x8, addend: 0x0, symName: __Z14drop_ppm_imageNSt3__112basic_stringIcNS_11char_traitsIcEENS_9allocatorIcEEEERKNS_6vectorIjNS3_IjEEEEmm, symObjAddr: 0xC0, symBinAddr: 0x1000040D0, symSize: 0x290 }
  - { offsetInCU: 0xA822, offset: 0xA822, size: 0x8, addend: 0x0, symName: __ZNKSt3__16vectorIjNS_9allocatorIjEEE4sizeB7v160006Ev, symObjAddr: 0x350, symBinAddr: 0x100004360, symSize: 0x20 }
  - { offsetInCU: 0xA8E0, offset: 0xA8E0, size: 0x8, addend: 0x0, symName: __ZNSt3__114basic_ofstreamIcNS_11char_traitsIcEEEC1ERKNS_12basic_stringIcS2_NS_9allocatorIcEEEEj, symObjAddr: 0x370, symBinAddr: 0x100004380, symSize: 0x160 }
  - { offsetInCU: 0xA92A, offset: 0xA92A, size: 0x8, addend: 0x0, symName: __ZNKSt3__16vectorIjNS_9allocatorIjEEEixB7v160006Em, symObjAddr: 0x510, symBinAddr: 0x100004520, symSize: 0x20 }
  - { offsetInCU: 0xA961, offset: 0xA961, size: 0x8, addend: 0x0, symName: __ZNSt3__114basic_ofstreamIcNS_11char_traitsIcEEE5closeEv, symObjAddr: 0x560, symBinAddr: 0x100004570, symSize: 0x50 }
  - { offsetInCU: 0xA98E, offset: 0xA98E, size: 0x8, addend: 0x0, symName: __ZNSt3__114basic_ofstreamIcNS_11char_traitsIcEEED1Ev, symObjAddr: 0x5B0, symBinAddr: 0x1000045C0, symSize: 0x40 }
  - { offsetInCU: 0xA9BA, offset: 0xA9BA, size: 0x8, addend: 0x0, symName: __Z14draw_rectangleRNSt3__16vectorIjNS_9allocatorIjEEEEmmmmmmj, symObjAddr: 0x5F0, symBinAddr: 0x100004600, symSize: 0x130 }
  - { offsetInCU: 0xAAB0, offset: 0xAAB0, size: 0x8, addend: 0x0, symName: __ZNSt3__16vectorIjNS_9allocatorIjEEEixB7v160006Em, symObjAddr: 0x720, symBinAddr: 0x100004730, symSize: 0x20 }
  - { offsetInCU: 0xAAE7, offset: 0xAAE7, size: 0x8, addend: 0x0, symName: _main, symObjAddr: 0x740, symBinAddr: 0x100004750, symSize: 0xA40 }
  - { offsetInCU: 0xAD6A, offset: 0xAD6A, size: 0x8, addend: 0x0, symName: __ZNSt3__16vectorIjNS_9allocatorIjEEEC1EmRKj, symObjAddr: 0x1180, symBinAddr: 0x100005190, symSize: 0x30 }
  - { offsetInCU: 0xADB4, offset: 0xADB4, size: 0x8, addend: 0x0, symName: __ZNSt3__16vectorIjNS_9allocatorIjEEEC1Em, symObjAddr: 0x11B0, symBinAddr: 0x1000051C0, symSize: 0x30 }
  - { offsetInCU: 0xAEBD, offset: 0xAEBD, size: 0x8, addend: 0x0, symName: __ZNSt3__118basic_stringstreamIcNS_11char_traitsIcEENS_9allocatorIcEEEC1B7v160006Ev, symObjAddr: 0x11E0, symBinAddr: 0x1000051F0, symSize: 0x100 }
  - { offsetInCU: 0xAEE7, offset: 0xAEE7, size: 0x8, addend: 0x0, symName: __ZNSt3__16vectorIjNS_9allocatorIjEEEaSB7v160006EOS3_, symObjAddr: 0x13B0, symBinAddr: 0x1000053C0, symSize: 0x30 }
  - { offsetInCU: 0xAF1E, offset: 0xAF1E, size: 0x8, addend: 0x0, symName: __ZNSt3__16vectorIjNS_9allocatorIjEEED1B7v160006Ev, symObjAddr: 0x13E0, symBinAddr: 0x1000053F0, symSize: 0x20 }
  - { offsetInCU: 0xAF47, offset: 0xAF47, size: 0x8, addend: 0x0, symName: __Z3cosB7v160006f, symObjAddr: 0x1400, symBinAddr: 0x100005410, symSize: 0x20 }
  - { offsetInCU: 0xAF75, offset: 0xAF75, size: 0x8, addend: 0x0, symName: __Z3sinB7v160006f, symObjAddr: 0x1420, symBinAddr: 0x100005430, symSize: 0x20 }
  - { offsetInCU: 0xAFA4, offset: 0xAFA4, size: 0x8, addend: 0x0, symName: __ZNKSt3__118basic_stringstreamIcNS_11char_traitsIcEENS_9allocatorIcEEE3strB7v160006Ev, symObjAddr: 0x1440, symBinAddr: 0x100005450, symSize: 0x30 }
  - { offsetInCU: 0xAFCF, offset: 0xAFCF, size: 0x8, addend: 0x0, symName: __ZNSt3__118basic_stringstreamIcNS_11char_traitsIcEENS_9allocatorIcEEED1Ev, symObjAddr: 0x1470, symBinAddr: 0x100005480, symSize: 0x40 }
  - { offsetInCU: 0xAFFC, offset: 0xAFFC, size: 0x8, addend: 0x0, symName: __ZNSt3__114basic_ofstreamIcNS_11char_traitsIcEEED2Ev, symObjAddr: 0x14B0, symBinAddr: 0x1000054C0, symSize: 0x60 }
  - { offsetInCU: 0xB036, offset: 0xB036, size: 0x8, addend: 0x0, symName: __ZTv0_n24_NSt3__114basic_ofstreamIcNS_11char_traitsIcEEED1Ev, symObjAddr: 0x1510, symBinAddr: 0x100005520, symSize: 0x20 }
  - { offsetInCU: 0xB04D, offset: 0xB04D, size: 0x8, addend: 0x0, symName: __ZNSt3__18__iom_t6C1B7v160006Ei, symObjAddr: 0x1530, symBinAddr: 0x100005540, symSize: 0x30 }
  - { offsetInCU: 0xB085, offset: 0xB085, size: 0x8, addend: 0x0, symName: __ZNSt3__18__iom_t6C2B7v160006Ei, symObjAddr: 0x1560, symBinAddr: 0x100005570, symSize: 0x20 }
  - { offsetInCU: 0xB0BD, offset: 0xB0BD, size: 0x8, addend: 0x0, symName: __ZNSt3__118basic_stringstreamIcNS_11char_traitsIcEENS_9allocatorIcEEED2Ev, symObjAddr: 0x1580, symBinAddr: 0x100005590, symSize: 0x60 }
  - { offsetInCU: 0xB0F7, offset: 0xB0F7, size: 0x8, addend: 0x0, symName: __ZThn16_NSt3__118basic_stringstreamIcNS_11char_traitsIcEENS_9allocatorIcEEED1Ev, symObjAddr: 0x15E0, symBinAddr: 0x1000055F0, symSize: 0x20 }
  - { offsetInCU: 0xB10E, offset: 0xB10E, size: 0x8, addend: 0x0, symName: __ZTv0_n24_NSt3__118basic_stringstreamIcNS_11char_traitsIcEENS_9allocatorIcEEED1Ev, symObjAddr: 0x1600, symBinAddr: 0x100005610, symSize: 0x20 }
  - { offsetInCU: 0xB12A, offset: 0xB12A, size: 0x8, addend: 0x0, symName: __ZNSt3__115basic_stringbufIcNS_11char_traitsIcEENS_9allocatorIcEEED1Ev, symObjAddr: 0x1620, symBinAddr: 0x100005630, symSize: 0x20 }
  - { offsetInCU: 0xB157, offset: 0xB157, size: 0x8, addend: 0x0, symName: __ZNSt3__115basic_stringbufIcNS_11char_traitsIcEENS_9allocatorIcEEED2Ev, symObjAddr: 0x1640, symBinAddr: 0x100005650, symSize: 0x40 }
  - { offsetInCU: 0xB184, offset: 0xB184, size: 0x8, addend: 0x0, symName: __ZNSt3__19basic_iosIcNS_11char_traitsIcEEEC2B7v160006Ev, symObjAddr: 0x1680, symBinAddr: 0x100005690, symSize: 0x40 }
  - { offsetInCU: 0xB1AE, offset: 0xB1AE, size: 0x8, addend: 0x0, symName: __ZNSt3__113basic_ostreamIcNS_11char_traitsIcEEEC2B7v160006EPNS_15basic_streambufIcS2_EE, symObjAddr: 0x16C0, symBinAddr: 0x1000056D0, symSize: 0x50 }
  - { offsetInCU: 0xB1F3, offset: 0xB1F3, size: 0x8, addend: 0x0, symName: __ZNSt3__113basic_filebufIcNS_11char_traitsIcEEE4openERKNS_12basic_stringIcS2_NS_9allocatorIcEEEEj, symObjAddr: 0x1710, symBinAddr: 0x100005720, symSize: 0x40 }
  - { offsetInCU: 0xB237, offset: 0xB237, size: 0x8, addend: 0x0, symName: __ZNSt3__19basic_iosIcNS_11char_traitsIcEEE8setstateB7v160006Ej, symObjAddr: 0x1750, symBinAddr: 0x100005760, symSize: 0x30 }
  - { offsetInCU: 0xB26C, offset: 0xB26C, size: 0x8, addend: 0x0, symName: __ZNSt3__18ios_baseC2B7v160006Ev, symObjAddr: 0x1780, symBinAddr: 0x100005790, symSize: 0x20 }
  - { offsetInCU: 0xB296, offset: 0xB296, size: 0x8, addend: 0x0, symName: __ZNSt3__19basic_iosIcNS_11char_traitsIcEEE4initB7v160006EPNS_15basic_streambufIcS2_EE, symObjAddr: 0x17A0, symBinAddr: 0x1000057B0, symSize: 0x50 }
  - { offsetInCU: 0xB2CD, offset: 0xB2CD, size: 0x8, addend: 0x0, symName: __ZNSt3__111char_traitsIcE3eofEv, symObjAddr: 0x17F0, symBinAddr: 0x100005800, symSize: 0x10 }
  - { offsetInCU: 0xB2E1, offset: 0xB2E1, size: 0x8, addend: 0x0, symName: __ZNKSt3__112basic_stringIcNS_11char_traitsIcEENS_9allocatorIcEEE5c_strB7v160006Ev, symObjAddr: 0x1800, symBinAddr: 0x100005810, symSize: 0x20 }
  - { offsetInCU: 0xB307, offset: 0xB307, size: 0x8, addend: 0x0, symName: __ZNKSt3__112basic_stringIcNS_11char_traitsIcEENS_9allocatorIcEEE4dataB7v160006Ev, symObjAddr: 0x1820, symBinAddr: 0x100005830, symSize: 0x30 }
  - { offsetInCU: 0xB32D, offset: 0xB32D, size: 0x8, addend: 0x0, symName: __ZNKSt3__112basic_stringIcNS_11char_traitsIcEENS_9allocatorIcEEE13__get_pointerB7v160006Ev, symObjAddr: 0x1860, symBinAddr: 0x100005870, symSize: 0x50 }
  - { offsetInCU: 0xB353, offset: 0xB353, size: 0x8, addend: 0x0, symName: __ZNKSt3__112basic_stringIcNS_11char_traitsIcEENS_9allocatorIcEEE9__is_longB7v160006Ev, symObjAddr: 0x18B0, symBinAddr: 0x1000058C0, symSize: 0x30 }
  - { offsetInCU: 0xB379, offset: 0xB379, size: 0x8, addend: 0x0, symName: __ZNKSt3__112basic_stringIcNS_11char_traitsIcEENS_9allocatorIcEEE18__get_long_pointerB7v160006Ev, symObjAddr: 0x18E0, symBinAddr: 0x1000058F0, symSize: 0x20 }
  - { offsetInCU: 0xB39F, offset: 0xB39F, size: 0x8, addend: 0x0, symName: __ZNKSt3__112basic_stringIcNS_11char_traitsIcEENS_9allocatorIcEEE19__get_short_pointerB7v160006Ev, symObjAddr: 0x1900, symBinAddr: 0x100005910, symSize: 0x30 }
  - { offsetInCU: 0xB3C5, offset: 0xB3C5, size: 0x8, addend: 0x0, symName: __ZNKSt3__117__compressed_pairINS_12basic_stringIcNS_11char_traitsIcEENS_9allocatorIcEEE5__repES5_E5firstB7v160006Ev, symObjAddr: 0x1930, symBinAddr: 0x100005940, symSize: 0x20 }
  - { offsetInCU: 0xB3EB, offset: 0xB3EB, size: 0x8, addend: 0x0, symName: __ZNKSt3__122__compressed_pair_elemINS_12basic_stringIcNS_11char_traitsIcEENS_9allocatorIcEEE5__repELi0ELb0EE5__getB7v160006Ev, symObjAddr: 0x1950, symBinAddr: 0x100005960, symSize: 0x10 }
  - { offsetInCU: 0xB411, offset: 0xB411, size: 0x8, addend: 0x0, symName: __ZNSt3__114pointer_traitsIPKcE10pointer_toB7v160006ERS1_, symObjAddr: 0x1960, symBinAddr: 0x100005970, symSize: 0x10 }
  - { offsetInCU: 0xB434, offset: 0xB434, size: 0x8, addend: 0x0, symName: __ZNSt3__18ios_base8setstateB7v160006Ej, symObjAddr: 0x1970, symBinAddr: 0x100005980, symSize: 0x30 }
  - { offsetInCU: 0xB46B, offset: 0xB46B, size: 0x8, addend: 0x0, symName: __ZNSt3__111char_traitsIcE6lengthEPKc, symObjAddr: 0x1B90, symBinAddr: 0x100005BA0, symSize: 0x30 }
  - { offsetInCU: 0xB4AC, offset: 0xB4AC, size: 0x8, addend: 0x0, symName: __ZNKSt3__113basic_ostreamIcNS_11char_traitsIcEEE6sentrycvbB7v160006Ev, symObjAddr: 0x1BC0, symBinAddr: 0x100005BD0, symSize: 0x20 }
  - { offsetInCU: 0xB4D2, offset: 0xB4D2, size: 0x8, addend: 0x0, symName: __ZNSt3__119ostreambuf_iteratorIcNS_11char_traitsIcEEEC1B7v160006ERNS_13basic_ostreamIcS2_EE, symObjAddr: 0x1E00, symBinAddr: 0x100005E10, symSize: 0x30 }
  - { offsetInCU: 0xB50A, offset: 0xB50A, size: 0x8, addend: 0x0, symName: __ZNKSt3__18ios_base5flagsB7v160006Ev, symObjAddr: 0x1E30, symBinAddr: 0x100005E40, symSize: 0x20 }
  - { offsetInCU: 0xB532, offset: 0xB532, size: 0x8, addend: 0x0, symName: __ZNKSt3__19basic_iosIcNS_11char_traitsIcEEE4fillB7v160006Ev, symObjAddr: 0x1E50, symBinAddr: 0x100005E60, symSize: 0x70 }
  - { offsetInCU: 0xB55A, offset: 0xB55A, size: 0x8, addend: 0x0, symName: __ZNKSt3__119ostreambuf_iteratorIcNS_11char_traitsIcEEE6failedB7v160006Ev, symObjAddr: 0x1EC0, symBinAddr: 0x100005ED0, symSize: 0x20 }
  - { offsetInCU: 0xB580, offset: 0xB580, size: 0x8, addend: 0x0, symName: __ZNKSt3__18ios_base5widthB7v160006Ev, symObjAddr: 0x1EF0, symBinAddr: 0x100005F00, symSize: 0x20 }
  - { offsetInCU: 0xB5A8, offset: 0xB5A8, size: 0x8, addend: 0x0, symName: __ZNSt3__115basic_streambufIcNS_11char_traitsIcEEE5sputnB7v160006EPKcl, symObjAddr: 0x1F10, symBinAddr: 0x100005F20, symSize: 0x30 }
  - { offsetInCU: 0xB5EA, offset: 0xB5EA, size: 0x8, addend: 0x0, symName: __ZNSt3__112basic_stringIcNS_11char_traitsIcEENS_9allocatorIcEEEC1B7v160006Emc, symObjAddr: 0x1F40, symBinAddr: 0x100005F50, symSize: 0x30 }
  - { offsetInCU: 0xB632, offset: 0xB632, size: 0x8, addend: 0x0, symName: __ZNSt3__18ios_base5widthB7v160006El, symObjAddr: 0x1F70, symBinAddr: 0x100005F80, symSize: 0x30 }
  - { offsetInCU: 0xB678, offset: 0xB678, size: 0x8, addend: 0x0, symName: __ZNSt3__112basic_stringIcNS_11char_traitsIcEENS_9allocatorIcEEEC2B7v160006Emc, symObjAddr: 0x1FA0, symBinAddr: 0x100005FB0, symSize: 0x50 }
  - { offsetInCU: 0xB6C5, offset: 0xB6C5, size: 0x8, addend: 0x0, symName: __ZNSt3__117__compressed_pairINS_12basic_stringIcNS_11char_traitsIcEENS_9allocatorIcEEE5__repES5_EC1B7v160006INS_18__default_init_tagESA_EEOT_OT0_, symObjAddr: 0x1FF0, symBinAddr: 0x100006000, symSize: 0x30 }
  - { offsetInCU: 0xB71D, offset: 0xB71D, size: 0x8, addend: 0x0, symName: __ZNSt3__117__compressed_pairINS_12basic_stringIcNS_11char_traitsIcEENS_9allocatorIcEEE5__repES5_EC2B7v160006INS_18__default_init_tagESA_EEOT_OT0_, symObjAddr: 0x2030, symBinAddr: 0x100006040, symSize: 0x30 }
  - { offsetInCU: 0xB775, offset: 0xB775, size: 0x8, addend: 0x0, symName: __ZNSt3__122__compressed_pair_elemINS_12basic_stringIcNS_11char_traitsIcEENS_9allocatorIcEEE5__repELi0ELb0EEC2B7v160006ENS_18__default_init_tagE, symObjAddr: 0x2060, symBinAddr: 0x100006070, symSize: 0x10 }
  - { offsetInCU: 0xB7AA, offset: 0xB7AA, size: 0x8, addend: 0x0, symName: __ZNSt3__122__compressed_pair_elemINS_9allocatorIcEELi1ELb1EEC2B7v160006ENS_18__default_init_tagE, symObjAddr: 0x2070, symBinAddr: 0x100006080, symSize: 0x20 }
  - { offsetInCU: 0xB7DF, offset: 0xB7DF, size: 0x8, addend: 0x0, symName: __ZNSt3__19allocatorIcEC2B7v160006Ev, symObjAddr: 0x2090, symBinAddr: 0x1000060A0, symSize: 0x20 }
  - { offsetInCU: 0xB809, offset: 0xB809, size: 0x8, addend: 0x0, symName: __ZNSt3__116__non_trivial_ifILb1ENS_9allocatorIcEEEC2B7v160006Ev, symObjAddr: 0x20B0, symBinAddr: 0x1000060C0, symSize: 0x10 }
  - { offsetInCU: 0xB833, offset: 0xB833, size: 0x8, addend: 0x0, symName: __ZNSt3__119ostreambuf_iteratorIcNS_11char_traitsIcEEEC2B7v160006ERNS_13basic_ostreamIcS2_EE, symObjAddr: 0x20C0, symBinAddr: 0x1000060D0, symSize: 0x50 }
  - { offsetInCU: 0xB86B, offset: 0xB86B, size: 0x8, addend: 0x0, symName: __ZNKSt3__19basic_iosIcNS_11char_traitsIcEEE5rdbufB7v160006Ev, symObjAddr: 0x2110, symBinAddr: 0x100006120, symSize: 0x20 }
  - { offsetInCU: 0xB893, offset: 0xB893, size: 0x8, addend: 0x0, symName: __ZNKSt3__18ios_base5rdbufB7v160006Ev, symObjAddr: 0x2130, symBinAddr: 0x100006140, symSize: 0x20 }
  - { offsetInCU: 0xB8B9, offset: 0xB8B9, size: 0x8, addend: 0x0, symName: __ZNSt3__111char_traitsIcE11eq_int_typeEii, symObjAddr: 0x2150, symBinAddr: 0x100006160, symSize: 0x20 }
  - { offsetInCU: 0xB8EA, offset: 0xB8EA, size: 0x8, addend: 0x0, symName: __ZNKSt3__19basic_iosIcNS_11char_traitsIcEEE5widenB7v160006Ec, symObjAddr: 0x2170, symBinAddr: 0x100006180, symSize: 0x80 }
  - { offsetInCU: 0xB958, offset: 0xB958, size: 0x8, addend: 0x0, symName: __ZNKSt3__15ctypeIcE5widenB7v160006Ec, symObjAddr: 0x2220, symBinAddr: 0x100006230, symSize: 0x30 }
  - { offsetInCU: 0xB98D, offset: 0xB98D, size: 0x8, addend: 0x0, symName: __ZNSt3__16vectorIjNS_9allocatorIjEEEC2EmRKj, symObjAddr: 0x2270, symBinAddr: 0x100006280, symSize: 0xE0 }
  - { offsetInCU: 0xB9F1, offset: 0xB9F1, size: 0x8, addend: 0x0, symName: __ZNSt3__117__compressed_pairIPjNS_9allocatorIjEEEC1B7v160006IDnNS_18__default_init_tagEEEOT_OT0_, symObjAddr: 0x2350, symBinAddr: 0x100006360, symSize: 0x30 }
  - { offsetInCU: 0xBA49, offset: 0xBA49, size: 0x8, addend: 0x0, symName: __ZNSt3__16vectorIjNS_9allocatorIjEEE16__destroy_vectorC1ERS3_, symObjAddr: 0x23C0, symBinAddr: 0x1000063D0, symSize: 0x30 }
  - { offsetInCU: 0xBA82, offset: 0xBA82, size: 0x8, addend: 0x0, symName: __ZNSt3__16vectorIjNS_9allocatorIjEEE11__vallocateB7v160006Em, symObjAddr: 0x2400, symBinAddr: 0x100006410, symSize: 0xA0 }
  - { offsetInCU: 0xBAC6, offset: 0xBAC6, size: 0x8, addend: 0x0, symName: __ZNSt3__16vectorIjNS_9allocatorIjEEE18__construct_at_endEmRKj, symObjAddr: 0x24A0, symBinAddr: 0x1000064B0, symSize: 0xC0 }
  - { offsetInCU: 0xBB48, offset: 0xBB48, size: 0x8, addend: 0x0, symName: __ZNSt3__128__exception_guard_exceptionsINS_6vectorIjNS_9allocatorIjEEE16__destroy_vectorEE10__completeB7v160006Ev, symObjAddr: 0x2560, symBinAddr: 0x100006570, symSize: 0x20 }
  - { offsetInCU: 0xBB6E, offset: 0xBB6E, size: 0x8, addend: 0x0, symName: __ZNSt3__128__exception_guard_exceptionsINS_6vectorIjNS_9allocatorIjEEE16__destroy_vectorEED1B7v160006Ev, symObjAddr: 0x2580, symBinAddr: 0x100006590, symSize: 0x20 }
  - { offsetInCU: 0xBB98, offset: 0xBB98, size: 0x8, addend: 0x0, symName: __ZNSt3__117__compressed_pairIPjNS_9allocatorIjEEEC2B7v160006IDnNS_18__default_init_tagEEEOT_OT0_, symObjAddr: 0x25A0, symBinAddr: 0x1000065B0, symSize: 0x40 }
  - { offsetInCU: 0xBBF0, offset: 0xBBF0, size: 0x8, addend: 0x0, symName: __ZNSt3__122__compressed_pair_elemIPjLi0ELb0EEC2B7v160006IDnvEEOT_, symObjAddr: 0x25E0, symBinAddr: 0x1000065F0, symSize: 0x20 }
  - { offsetInCU: 0xBC32, offset: 0xBC32, size: 0x8, addend: 0x0, symName: __ZNSt3__122__compressed_pair_elemINS_9allocatorIjEELi1ELb1EEC2B7v160006ENS_18__default_init_tagE, symObjAddr: 0x2600, symBinAddr: 0x100006610, symSize: 0x20 }
  - { offsetInCU: 0xBC67, offset: 0xBC67, size: 0x8, addend: 0x0, symName: __ZNSt3__19allocatorIjEC2B7v160006Ev, symObjAddr: 0x2620, symBinAddr: 0x100006630, symSize: 0x20 }
  - { offsetInCU: 0xBC91, offset: 0xBC91, size: 0x8, addend: 0x0, symName: __ZNSt3__116__non_trivial_ifILb1ENS_9allocatorIjEEEC2B7v160006Ev, symObjAddr: 0x2640, symBinAddr: 0x100006650, symSize: 0x10 }
  - { offsetInCU: 0xBCBB, offset: 0xBCBB, size: 0x8, addend: 0x0, symName: __ZNSt3__128__exception_guard_exceptionsINS_6vectorIjNS_9allocatorIjEEE16__destroy_vectorEEC1B7v160006ES5_, symObjAddr: 0x2650, symBinAddr: 0x100006660, symSize: 0x30 }
  - { offsetInCU: 0xBCF3, offset: 0xBCF3, size: 0x8, addend: 0x0, symName: __ZNSt3__128__exception_guard_exceptionsINS_6vectorIjNS_9allocatorIjEEE16__destroy_vectorEEC2B7v160006ES5_, symObjAddr: 0x2680, symBinAddr: 0x100006690, symSize: 0x20 }
  - { offsetInCU: 0xBD2B, offset: 0xBD2B, size: 0x8, addend: 0x0, symName: __ZNSt3__16vectorIjNS_9allocatorIjEEE16__destroy_vectorC2ERS3_, symObjAddr: 0x26A0, symBinAddr: 0x1000066B0, symSize: 0x20 }
  - { offsetInCU: 0xBD64, offset: 0xBD64, size: 0x8, addend: 0x0, symName: __ZNKSt3__16vectorIjNS_9allocatorIjEEE8max_sizeEv, symObjAddr: 0x26C0, symBinAddr: 0x1000066D0, symSize: 0x60 }
  - { offsetInCU: 0xBD8C, offset: 0xBD8C, size: 0x8, addend: 0x0, symName: __ZNKSt3__16vectorIjNS_9allocatorIjEEE20__throw_length_errorB7v160006Ev, symObjAddr: 0x2720, symBinAddr: 0x100006730, symSize: 0x20 }
  - { offsetInCU: 0xBDB2, offset: 0xBDB2, size: 0x8, addend: 0x0, symName: __ZNSt3__16vectorIjNS_9allocatorIjEEE7__allocB7v160006Ev, symObjAddr: 0x2780, symBinAddr: 0x100006790, symSize: 0x20 }
  - { offsetInCU: 0xBDD8, offset: 0xBDD8, size: 0x8, addend: 0x0, symName: __ZNSt3__16vectorIjNS_9allocatorIjEEE9__end_capB7v160006Ev, symObjAddr: 0x27A0, symBinAddr: 0x1000067B0, symSize: 0x20 }
  - { offsetInCU: 0xBDFE, offset: 0xBDFE, size: 0x8, addend: 0x0, symName: __ZNKSt3__16vectorIjNS_9allocatorIjEEE14__annotate_newB7v160006Em, symObjAddr: 0x27C0, symBinAddr: 0x1000067D0, symSize: 0xB0 }
  - { offsetInCU: 0xBE3D, offset: 0xBE3D, size: 0x8, addend: 0x0, symName: __ZNSt3__116allocator_traitsINS_9allocatorIjEEE8max_sizeB7v160006IS2_vEEmRKS2_, symObjAddr: 0x28A0, symBinAddr: 0x1000068B0, symSize: 0x20 }
  - { offsetInCU: 0xBE6B, offset: 0xBE6B, size: 0x8, addend: 0x0, symName: __ZNKSt3__16vectorIjNS_9allocatorIjEEE7__allocB7v160006Ev, symObjAddr: 0x28C0, symBinAddr: 0x1000068D0, symSize: 0x20 }
  - { offsetInCU: 0xBE91, offset: 0xBE91, size: 0x8, addend: 0x0, symName: __ZNSt3__114numeric_limitsIlE3maxB7v160006Ev, symObjAddr: 0x28E0, symBinAddr: 0x1000068F0, symSize: 0x10 }
  - { offsetInCU: 0xBEB9, offset: 0xBEB9, size: 0x8, addend: 0x0, symName: __ZNKSt3__16__lessImmEclB7v160006ERKmS3_, symObjAddr: 0x2940, symBinAddr: 0x100006950, symSize: 0x30 }
  - { offsetInCU: 0xBEFB, offset: 0xBEFB, size: 0x8, addend: 0x0, symName: __ZNKSt3__19allocatorIjE8max_sizeB7v160006Ev, symObjAddr: 0x2970, symBinAddr: 0x100006980, symSize: 0x20 }
  - { offsetInCU: 0xBF21, offset: 0xBF21, size: 0x8, addend: 0x0, symName: __ZNKSt3__117__compressed_pairIPjNS_9allocatorIjEEE6secondB7v160006Ev, symObjAddr: 0x2990, symBinAddr: 0x1000069A0, symSize: 0x20 }
  - { offsetInCU: 0xBF47, offset: 0xBF47, size: 0x8, addend: 0x0, symName: __ZNKSt3__122__compressed_pair_elemINS_9allocatorIjEELi1ELb1EE5__getB7v160006Ev, symObjAddr: 0x29B0, symBinAddr: 0x1000069C0, symSize: 0x10 }
  - { offsetInCU: 0xBF6D, offset: 0xBF6D, size: 0x8, addend: 0x0, symName: __ZNSt3__123__libcpp_numeric_limitsIlLb1EE3maxB7v160006Ev, symObjAddr: 0x29C0, symBinAddr: 0x1000069D0, symSize: 0x10 }
  - { offsetInCU: 0xBF81, offset: 0xBF81, size: 0x8, addend: 0x0, symName: __ZNSt12length_errorC1B7v160006EPKc, symObjAddr: 0x2A40, symBinAddr: 0x100006A50, symSize: 0x30 }
  - { offsetInCU: 0xBFB9, offset: 0xBFB9, size: 0x8, addend: 0x0, symName: __ZNSt12length_errorC2B7v160006EPKc, symObjAddr: 0x2A70, symBinAddr: 0x100006A80, symSize: 0x40 }
  - { offsetInCU: 0xBFF1, offset: 0xBFF1, size: 0x8, addend: 0x0, symName: __ZNSt3__19allocatorIjE8allocateB7v160006Em, symObjAddr: 0x2AB0, symBinAddr: 0x100006AC0, symSize: 0x50 }
  - { offsetInCU: 0xC025, offset: 0xC025, size: 0x8, addend: 0x0, symName: __ZNSt3__117__compressed_pairIPjNS_9allocatorIjEEE6secondB7v160006Ev, symObjAddr: 0x2B80, symBinAddr: 0x100006B90, symSize: 0x20 }
  - { offsetInCU: 0xC04B, offset: 0xC04B, size: 0x8, addend: 0x0, symName: __ZNSt3__122__compressed_pair_elemINS_9allocatorIjEELi1ELb1EE5__getB7v160006Ev, symObjAddr: 0x2BA0, symBinAddr: 0x100006BB0, symSize: 0x10 }
  - { offsetInCU: 0xC071, offset: 0xC071, size: 0x8, addend: 0x0, symName: __ZNSt3__117__compressed_pairIPjNS_9allocatorIjEEE5firstB7v160006Ev, symObjAddr: 0x2BB0, symBinAddr: 0x100006BC0, symSize: 0x20 }
  - { offsetInCU: 0xC097, offset: 0xC097, size: 0x8, addend: 0x0, symName: __ZNSt3__122__compressed_pair_elemIPjLi0ELb0EE5__getB7v160006Ev, symObjAddr: 0x2BD0, symBinAddr: 0x100006BE0, symSize: 0x10 }
  - { offsetInCU: 0xC0BD, offset: 0xC0BD, size: 0x8, addend: 0x0, symName: __ZNKSt3__16vectorIjNS_9allocatorIjEEE31__annotate_contiguous_containerB7v160006EPKvS5_S5_S5_, symObjAddr: 0x2BE0, symBinAddr: 0x100006BF0, symSize: 0x20 }
  - { offsetInCU: 0xC113, offset: 0xC113, size: 0x8, addend: 0x0, symName: __ZNKSt3__16vectorIjNS_9allocatorIjEEE4dataB7v160006Ev, symObjAddr: 0x2C00, symBinAddr: 0x100006C10, symSize: 0x20 }
  - { offsetInCU: 0xC139, offset: 0xC139, size: 0x8, addend: 0x0, symName: __ZNKSt3__16vectorIjNS_9allocatorIjEEE8capacityB7v160006Ev, symObjAddr: 0x2C20, symBinAddr: 0x100006C30, symSize: 0x30 }
  - { offsetInCU: 0xC15F, offset: 0xC15F, size: 0x8, addend: 0x0, symName: __ZNKSt3__16vectorIjNS_9allocatorIjEEE9__end_capB7v160006Ev, symObjAddr: 0x2C60, symBinAddr: 0x100006C70, symSize: 0x20 }
  - { offsetInCU: 0xC185, offset: 0xC185, size: 0x8, addend: 0x0, symName: __ZNKSt3__117__compressed_pairIPjNS_9allocatorIjEEE5firstB7v160006Ev, symObjAddr: 0x2C80, symBinAddr: 0x100006C90, symSize: 0x20 }
  - { offsetInCU: 0xC1AB, offset: 0xC1AB, size: 0x8, addend: 0x0, symName: __ZNKSt3__122__compressed_pair_elemIPjLi0ELb0EE5__getB7v160006Ev, symObjAddr: 0x2CA0, symBinAddr: 0x100006CB0, symSize: 0x10 }
  - { offsetInCU: 0xC1EA, offset: 0xC1EA, size: 0x8, addend: 0x0, symName: __ZNSt3__16vectorIjNS_9allocatorIjEEE21_ConstructTransactionC1B7v160006ERS3_m, symObjAddr: 0x2CB0, symBinAddr: 0x100006CC0, symSize: 0x30 }
  - { offsetInCU: 0xC232, offset: 0xC232, size: 0x8, addend: 0x0, symName: __ZNSt3__116allocator_traitsINS_9allocatorIjEEE9constructB7v160006IjJRKjEvEEvRS2_PT_DpOT0_, symObjAddr: 0x2CE0, symBinAddr: 0x100006CF0, symSize: 0x30 }
  - { offsetInCU: 0xC289, offset: 0xC289, size: 0x8, addend: 0x0, symName: __ZNSt3__16vectorIjNS_9allocatorIjEEE21_ConstructTransactionD1B7v160006Ev, symObjAddr: 0x2D10, symBinAddr: 0x100006D20, symSize: 0x20 }
  - { offsetInCU: 0xC2B3, offset: 0xC2B3, size: 0x8, addend: 0x0, symName: __ZNSt3__16vectorIjNS_9allocatorIjEEE21_ConstructTransactionC2B7v160006ERS3_m, symObjAddr: 0x2D30, symBinAddr: 0x100006D40, symSize: 0x40 }
  - { offsetInCU: 0xC2FB, offset: 0xC2FB, size: 0x8, addend: 0x0, symName: __ZNSt3__19allocatorIjE9constructB7v160006IjJRKjEEEvPT_DpOT0_, symObjAddr: 0x2D70, symBinAddr: 0x100006D80, symSize: 0x20 }
  - { offsetInCU: 0xC351, offset: 0xC351, size: 0x8, addend: 0x0, symName: __ZNSt3__16vectorIjNS_9allocatorIjEEE21_ConstructTransactionD2B7v160006Ev, symObjAddr: 0x2D90, symBinAddr: 0x100006DA0, symSize: 0x20 }
  - { offsetInCU: 0xC37B, offset: 0xC37B, size: 0x8, addend: 0x0, symName: __ZNSt3__128__exception_guard_exceptionsINS_6vectorIjNS_9allocatorIjEEE16__destroy_vectorEED2B7v160006Ev, symObjAddr: 0x2DB0, symBinAddr: 0x100006DC0, symSize: 0x40 }
  - { offsetInCU: 0xC3A5, offset: 0xC3A5, size: 0x8, addend: 0x0, symName: __ZNSt3__16vectorIjNS_9allocatorIjEEE16__destroy_vectorclB7v160006Ev, symObjAddr: 0x2DF0, symBinAddr: 0x100006E00, symSize: 0x90 }
  - { offsetInCU: 0xC3CB, offset: 0xC3CB, size: 0x8, addend: 0x0, symName: __ZNKSt3__16vectorIjNS_9allocatorIjEEE17__annotate_deleteB7v160006Ev, symObjAddr: 0x2E80, symBinAddr: 0x100006E90, symSize: 0xB0 }
  - { offsetInCU: 0xC3F1, offset: 0xC3F1, size: 0x8, addend: 0x0, symName: __ZNSt3__16vectorIjNS_9allocatorIjEEE7__clearB7v160006Ev, symObjAddr: 0x2F40, symBinAddr: 0x100006F50, symSize: 0x20 }
  - { offsetInCU: 0xC417, offset: 0xC417, size: 0x8, addend: 0x0, symName: __ZNSt3__116allocator_traitsINS_9allocatorIjEEE10deallocateB7v160006ERS2_Pjm, symObjAddr: 0x2F60, symBinAddr: 0x100006F70, symSize: 0x30 }
  - { offsetInCU: 0xC459, offset: 0xC459, size: 0x8, addend: 0x0, symName: __ZNSt3__16vectorIjNS_9allocatorIjEEE22__base_destruct_at_endB7v160006EPj, symObjAddr: 0x2F90, symBinAddr: 0x100006FA0, symSize: 0x80 }
  - { offsetInCU: 0xC49D, offset: 0xC49D, size: 0x8, addend: 0x0, symName: __ZNSt3__116allocator_traitsINS_9allocatorIjEEE7destroyB7v160006IjvEEvRS2_PT_, symObjAddr: 0x3010, symBinAddr: 0x100007020, symSize: 0x30 }
  - { offsetInCU: 0xC4DA, offset: 0xC4DA, size: 0x8, addend: 0x0, symName: __ZNSt3__19allocatorIjE7destroyB7v160006EPj, symObjAddr: 0x3040, symBinAddr: 0x100007050, symSize: 0x10 }
  - { offsetInCU: 0xC50E, offset: 0xC50E, size: 0x8, addend: 0x0, symName: __ZNSt3__19allocatorIjE10deallocateB7v160006EPjm, symObjAddr: 0x3050, symBinAddr: 0x100007060, symSize: 0x40 }
  - { offsetInCU: 0xC550, offset: 0xC550, size: 0x8, addend: 0x0, symName: __ZNSt3__16vectorIjNS_9allocatorIjEEED2B7v160006Ev, symObjAddr: 0x3100, symBinAddr: 0x100007110, symSize: 0x40 }
  - { offsetInCU: 0xC57A, offset: 0xC57A, size: 0x8, addend: 0x0, symName: __ZNSt3__16vectorIjNS_9allocatorIjEEEC2Em, symObjAddr: 0x3140, symBinAddr: 0x100007150, symSize: 0xE0 }
  - { offsetInCU: 0xC5CA, offset: 0xC5CA, size: 0x8, addend: 0x0, symName: __ZNSt3__16vectorIjNS_9allocatorIjEEE18__construct_at_endEm, symObjAddr: 0x3220, symBinAddr: 0x100007230, symSize: 0xC0 }
  - { offsetInCU: 0xC63D, offset: 0xC63D, size: 0x8, addend: 0x0, symName: __ZNSt3__116allocator_traitsINS_9allocatorIjEEE9constructB7v160006IjJEvEEvRS2_PT_DpOT0_, symObjAddr: 0x32E0, symBinAddr: 0x1000072F0, symSize: 0x30 }
  - { offsetInCU: 0xC67F, offset: 0xC67F, size: 0x8, addend: 0x0, symName: __ZNSt3__19allocatorIjE9constructB7v160006IjJEEEvPT_DpOT0_, symObjAddr: 0x3310, symBinAddr: 0x100007320, symSize: 0x20 }
  - { offsetInCU: 0xC6C1, offset: 0xC6C1, size: 0x8, addend: 0x0, symName: __ZNSt3__114basic_iostreamIcNS_11char_traitsIcEEEC2B7v160006EPNS_15basic_streambufIcS2_EE, symObjAddr: 0x3330, symBinAddr: 0x100007340, symSize: 0xA0 }
  - { offsetInCU: 0xC707, offset: 0xC707, size: 0x8, addend: 0x0, symName: __ZNSt3__115basic_stringbufIcNS_11char_traitsIcEENS_9allocatorIcEEEC1B7v160006Ej, symObjAddr: 0x33D0, symBinAddr: 0x1000073E0, symSize: 0x30 }
  - { offsetInCU: 0xC73F, offset: 0xC73F, size: 0x8, addend: 0x0, symName: __ZNSt3__113basic_istreamIcNS_11char_traitsIcEEEC2B7v160006EPNS_15basic_streambufIcS2_EE, symObjAddr: 0x3400, symBinAddr: 0x100007410, symSize: 0x50 }
  - { offsetInCU: 0xC784, offset: 0xC784, size: 0x8, addend: 0x0, symName: __ZNSt3__113basic_ostreamIcNS_11char_traitsIcEEEC2B7v160006Ev, symObjAddr: 0x3450, symBinAddr: 0x100007460, symSize: 0x30 }
  - { offsetInCU: 0xC7BB, offset: 0xC7BB, size: 0x8, addend: 0x0, symName: __ZNSt3__115basic_stringbufIcNS_11char_traitsIcEENS_9allocatorIcEEEC2B7v160006Ej, symObjAddr: 0x3480, symBinAddr: 0x100007490, symSize: 0x50 }
  - { offsetInCU: 0xC7F3, offset: 0xC7F3, size: 0x8, addend: 0x0, symName: __ZNSt3__112basic_stringIcNS_11char_traitsIcEENS_9allocatorIcEEEC1B7v160006Ev, symObjAddr: 0x34D0, symBinAddr: 0x1000074E0, symSize: 0x20 }
  - { offsetInCU: 0xC81D, offset: 0xC81D, size: 0x8, addend: 0x0, symName: __ZNSt3__112basic_stringIcNS_11char_traitsIcEENS_9allocatorIcEEEC2B7v160006Ev, symObjAddr: 0x34F0, symBinAddr: 0x100007500, symSize: 0x50 }
  - { offsetInCU: 0xC847, offset: 0xC847, size: 0x8, addend: 0x0, symName: __ZNSt3__112basic_stringIcNS_11char_traitsIcEENS_9allocatorIcEEE14__default_initB7v160006Ev, symObjAddr: 0x3540, symBinAddr: 0x100007550, symSize: 0x50 }
  - { offsetInCU: 0xC86D, offset: 0xC86D, size: 0x8, addend: 0x0, symName: __ZNSt3__117__compressed_pairINS_12basic_stringIcNS_11char_traitsIcEENS_9allocatorIcEEE5__repES5_E5firstB7v160006Ev, symObjAddr: 0x3590, symBinAddr: 0x1000075A0, symSize: 0x20 }
  - { offsetInCU: 0xC893, offset: 0xC893, size: 0x8, addend: 0x0, symName: __ZNSt3__122__compressed_pair_elemINS_12basic_stringIcNS_11char_traitsIcEENS_9allocatorIcEEE5__repELi0ELb0EE5__getB7v160006Ev, symObjAddr: 0x35B0, symBinAddr: 0x1000075C0, symSize: 0x10 }
  - { offsetInCU: 0xC8B9, offset: 0xC8B9, size: 0x8, addend: 0x0, symName: __ZNSt3__18__iom_t4IcEC1B7v160006Ec, symObjAddr: 0x35C0, symBinAddr: 0x1000075D0, symSize: 0x30 }
  - { offsetInCU: 0xC8F1, offset: 0xC8F1, size: 0x8, addend: 0x0, symName: __ZNSt3__18__iom_t4IcEC2B7v160006Ec, symObjAddr: 0x35F0, symBinAddr: 0x100007600, symSize: 0x20 }
  - { offsetInCU: 0xC929, offset: 0xC929, size: 0x8, addend: 0x0, symName: __ZNSt3__19basic_iosIcNS_11char_traitsIcEEE4fillB7v160006Ec, symObjAddr: 0x3610, symBinAddr: 0x100007620, symSize: 0x80 }
  - { offsetInCU: 0xC96F, offset: 0xC96F, size: 0x8, addend: 0x0, symName: __ZNSt3__16vectorIjNS_9allocatorIjEEE13__move_assignERS3_NS_17integral_constantIbLb1EEE, symObjAddr: 0x3690, symBinAddr: 0x1000076A0, symSize: 0xB0 }
  - { offsetInCU: 0xC9B2, offset: 0xC9B2, size: 0x8, addend: 0x0, symName: __ZNSt3__16vectorIjNS_9allocatorIjEEE13__vdeallocateEv, symObjAddr: 0x3740, symBinAddr: 0x100007750, symSize: 0x80 }
  - { offsetInCU: 0xC9DA, offset: 0xC9DA, size: 0x8, addend: 0x0, symName: __ZNSt3__16vectorIjNS_9allocatorIjEEE19__move_assign_allocB7v160006ERS3_, symObjAddr: 0x37C0, symBinAddr: 0x1000077D0, symSize: 0x30 }
  - { offsetInCU: 0xCA0F, offset: 0xCA0F, size: 0x8, addend: 0x0, symName: __ZNSt3__16vectorIjNS_9allocatorIjEEE5clearB7v160006Ev, symObjAddr: 0x3800, symBinAddr: 0x100007810, symSize: 0x50 }
  - { offsetInCU: 0xCA44, offset: 0xCA44, size: 0x8, addend: 0x0, symName: __ZNKSt3__16vectorIjNS_9allocatorIjEEE17__annotate_shrinkB7v160006Em, symObjAddr: 0x3850, symBinAddr: 0x100007860, symSize: 0xA0 }
  - { offsetInCU: 0xCA79, offset: 0xCA79, size: 0x8, addend: 0x0, symName: __ZNSt3__16vectorIjNS_9allocatorIjEEE19__move_assign_allocB7v160006ERS3_NS_17integral_constantIbLb1EEE, symObjAddr: 0x3900, symBinAddr: 0x100007910, symSize: 0x30 }
...
